; Function Attrs: mustprogress uwtable
define hidden void @_ZN7nanogui6Widget9set_themeEPNS_5ThemeE(ptr nocapture noundef nonnull align 8 dereferenceable(140) %0, ptr noundef %1) unnamed_addr #0 align 2 personality ptr @__gxx_personality_v0 {
  %3 = getelementptr inbounds i8, ptr %0, i64 24
  %4 = load ptr, ptr %3, align 8
  %5 = icmp eq ptr %4, %1
  br i1 %5, label %.loopexit, label %6

6:                                                ; preds = %2
  %.not6.i = icmp eq ptr %1, null
  br i1 %.not6.i, label %8, label %7

7:                                                ; preds = %6
  invoke void @_ZNK7nanogui6Object7inc_refEv(ptr noundef nonnull align 8 dereferenceable(12) %1)
          to label %thread-pre-split.i unwind label %11

thread-pre-split.i:                               ; preds = %7
  %.pr.i = load ptr, ptr %3, align 8
  br label %8

8:                                                ; preds = %thread-pre-split.i, %6
  %9 = phi ptr [ %.pr.i, %thread-pre-split.i ], [ %4, %6 ]
  %.not7.i = icmp eq ptr %9, null
  br i1 %.not7.i, label %_ZN7nanogui3refINS_5ThemeEEaSEPS1_.exit, label %10

10:                                               ; preds = %8
  tail call void @_ZNK7nanogui6Object7dec_refEb(ptr noundef nonnull align 8 dereferenceable(12) %9, i1 noundef zeroext true) #18
  br label %_ZN7nanogui3refINS_5ThemeEEaSEPS1_.exit

11:                                               ; preds = %7
  %12 = landingpad { ptr, i32 }
          catch ptr null
  %13 = extractvalue { ptr, i32 } %12, 0
  tail call void @__clang_call_terminate(ptr %13) #21
  unreachable

_ZN7nanogui3refINS_5ThemeEEaSEPS1_.exit:          ; preds = %8, %10
  store ptr %1, ptr %3, align 8
  %14 = getelementptr inbounds i8, ptr %0, i64 64
  %15 = load ptr, ptr %14, align 8
  %16 = getelementptr inbounds i8, ptr %0, i64 72
  %17 = load ptr, ptr %16, align 8
  %.not10 = icmp eq ptr %15, %17
  br i1 %.not10, label %.loopexit, label %.lr.ph

.lr.ph:                                           ; preds = %_ZN7nanogui3refINS_5ThemeEEaSEPS1_.exit, %.lr.ph
  %.sroa.07.011 = phi ptr [ %22, %.lr.ph ], [ %15, %_ZN7nanogui3refINS_5ThemeEEaSEPS1_.exit ]
  %18 = load ptr, ptr %.sroa.07.011, align 8
  %19 = load ptr, ptr %18, align 8
  %20 = getelementptr inbounds i8, ptr %19, i64 16
  %21 = load ptr, ptr %20, align 8
  tail call void %21(ptr noundef nonnull align 8 dereferenceable(140) %18, ptr noundef %1)
  %22 = getelementptr inbounds i8, ptr %.sroa.07.011, i64 8
  %.not = icmp eq ptr %22, %17
  br i1 %.not, label %.loopexit, label %.lr.ph

.loopexit:                                        ; preds = %.lr.ph, %_ZN7nanogui3refINS_5ThemeEEaSEPS1_.exit, %2
  ret void
}